	.file	"c51.cpp"
	.text
Ltext0:
	.section .rdata,"dr"
__ZStL19piecewise_construct:
	.space 1
	.section	.text$_ZN9__gnu_cxx5__ops16__iter_less_iterEv,"x"
	.linkonce discard
	.globl	__ZN9__gnu_cxx5__ops16__iter_less_iterEv
	.def	__ZN9__gnu_cxx5__ops16__iter_less_iterEv;	.scl	2;	.type	32;	.endef
__ZN9__gnu_cxx5__ops16__iter_less_iterEv:
LFB487:
	.file 1 "c:/mingw/lib/gcc/mingw32/6.3.0/include/c++/bits/predefined_ops.h"
	.loc 1 48 0
	.cfi_startproc
	pushl	%ebp
	.cfi_def_cfa_offset 8
	.cfi_offset 5, -8
	movl	%esp, %ebp
	.cfi_def_cfa_register 5
	.loc 1 48 0
	popl	%ebp
	.cfi_restore 5
	.cfi_def_cfa 4, 4
	ret
	.cfi_endproc
LFE487:
	.section .rdata,"dr"
__ZStL13allocator_arg:
	.space 1
__ZStL6ignore:
	.space 1
.lcomm __ZStL8__ioinit,1,1
	.align 4
__ZN9__gnu_cxxL21__default_lock_policyE:
	.long	2
__ZStL10defer_lock:
	.space 1
__ZStL11try_to_lock:
	.space 1
__ZStL10adopt_lock:
	.space 1
	.align 4
__ZNSt15regex_constantsL5icaseE:
	.long	1
	.align 4
__ZNSt15regex_constantsL6nosubsE:
	.long	2
	.align 4
__ZNSt15regex_constantsL8optimizeE:
	.long	4
	.align 4
__ZNSt15regex_constantsL7collateE:
	.long	8
	.align 4
__ZNSt15regex_constantsL10ECMAScriptE:
	.long	16
	.align 4
__ZNSt15regex_constantsL5basicE:
	.long	32
	.align 4
__ZNSt15regex_constantsL8extendedE:
	.long	64
	.align 4
__ZNSt15regex_constantsL3awkE:
	.long	128
	.align 4
__ZNSt15regex_constantsL4grepE:
	.long	256
	.align 4
__ZNSt15regex_constantsL5egrepE:
	.long	512
	.align 4
__ZNSt15regex_constantsL12__polynomialE:
	.long	1024
	.align 4
__ZNSt15regex_constantsL13match_defaultE:
	.space 4
	.align 4
__ZNSt15regex_constantsL13match_not_bolE:
	.long	1
	.align 4
__ZNSt15regex_constantsL13match_not_eolE:
	.long	2
	.align 4
__ZNSt15regex_constantsL13match_not_bowE:
	.long	4
	.align 4
__ZNSt15regex_constantsL13match_not_eowE:
	.long	8
	.align 4
__ZNSt15regex_constantsL9match_anyE:
	.long	16
	.align 4
__ZNSt15regex_constantsL14match_not_nullE:
	.long	32
	.align 4
__ZNSt15regex_constantsL16match_continuousE:
	.long	64
	.align 4
__ZNSt15regex_constantsL16match_prev_availE:
	.long	128
	.align 4
__ZNSt15regex_constantsL14format_defaultE:
	.space 4
	.align 4
__ZNSt15regex_constantsL10format_sedE:
	.long	256
	.align 4
__ZNSt15regex_constantsL14format_no_copyE:
	.long	512
	.align 4
__ZNSt15regex_constantsL17format_first_onlyE:
	.long	1024
	.align 4
__ZNSt15regex_constantsL13error_collateE:
	.space 4
	.align 4
__ZNSt15regex_constantsL11error_ctypeE:
	.long	1
	.align 4
__ZNSt15regex_constantsL12error_escapeE:
	.long	2
	.align 4
__ZNSt15regex_constantsL13error_backrefE:
	.long	3
	.align 4
__ZNSt15regex_constantsL11error_brackE:
	.long	4
	.align 4
__ZNSt15regex_constantsL11error_parenE:
	.long	5
	.align 4
__ZNSt15regex_constantsL11error_braceE:
	.long	6
	.align 4
__ZNSt15regex_constantsL14error_badbraceE:
	.long	7
	.align 4
__ZNSt15regex_constantsL11error_rangeE:
	.long	8
	.align 4
__ZNSt15regex_constantsL11error_spaceE:
	.long	9
	.align 4
__ZNSt15regex_constantsL15error_badrepeatE:
	.long	10
	.align 4
__ZNSt15regex_constantsL16error_complexityE:
	.long	11
	.align 4
__ZNSt15regex_constantsL11error_stackE:
	.long	12
	.align 4
__ZNSt8__detailL19_S_invalid_state_idE:
	.long	-1
LC0:
	.ascii "YES\0"
LC1:
	.ascii "NO\0"
	.text
	.globl	__Z5solvev
	.def	__Z5solvev;	.scl	2;	.type	32;	.endef
__Z5solvev:
LFB7686:
	.file 2 "c:/Programming/_Codeforces/c51.cpp"
	.loc 2 12 0
	.cfi_startproc
	.cfi_personality 0,___gxx_personality_v0
	.cfi_lsda 0,LLSDA7686
	pushl	%ebp
	.cfi_def_cfa_offset 8
	.cfi_offset 5, -8
	movl	%esp, %ebp
	.cfi_def_cfa_register 5
	pushl	%edi
	pushl	%esi
	pushl	%ebx
	subl	$76, %esp
	.cfi_offset 7, -12
	.cfi_offset 6, -16
	.cfi_offset 3, -20
	.loc 2 14 0
	leal	-40(%ebp), %eax
	movl	%eax, (%esp)
	movl	$__ZSt3cin, %ecx
LEHB0:
	call	__ZNSirsERx
	subl	$4, %esp
	movl	%eax, %edx
	leal	-48(%ebp), %eax
	movl	%eax, (%esp)
	movl	%edx, %ecx
	call	__ZNSirsERx
LEHE0:
	subl	$4, %esp
	.loc 2 15 0
	leal	-29(%ebp), %eax
	movl	%eax, %ecx
	call	__ZNSaIxEC1Ev
	movl	-40(%ebp), %eax
	movl	-36(%ebp), %edx
	movl	%eax, %ecx
	leal	-60(%ebp), %eax
	leal	-29(%ebp), %edx
	movl	%edx, 4(%esp)
	movl	%ecx, (%esp)
	movl	%eax, %ecx
LEHB1:
	call	__ZNSt6vectorIxSaIxEEC1EjRKS0_
LEHE1:
	subl	$8, %esp
	leal	-29(%ebp), %eax
	movl	%eax, %ecx
	call	__ZNSaIxED1Ev
LBB2:
	.loc 2 16 0
	movl	$0, -28(%ebp)
L6:
	.loc 2 16 0 is_stmt 0 discriminator 4
	movl	-28(%ebp), %eax
	movl	%eax, %ecx
	movl	%eax, %ebx
	sarl	$31, %ebx
	movl	-40(%ebp), %eax
	movl	-36(%ebp), %edx
	cmpl	%edx, %ebx
	jg	L4
	cmpl	%edx, %ebx
	jl	L17
	cmpl	%eax, %ecx
	jnb	L4
L17:
	.loc 2 16 0 discriminator 2
	movl	-28(%ebp), %edx
	leal	-60(%ebp), %eax
	movl	%edx, (%esp)
	movl	%eax, %ecx
	call	__ZNSt6vectorIxSaIxEEixEj
	subl	$4, %esp
	movl	%eax, (%esp)
	movl	$__ZSt3cin, %ecx
LEHB2:
	call	__ZNSirsERx
	subl	$4, %esp
	addl	$1, -28(%ebp)
	jmp	L6
L4:
LBE2:
	.loc 2 18 0 is_stmt 1
	movl	-48(%ebp), %eax
	movl	-44(%ebp), %edx
	movl	%eax, %ebx
	xorl	$1, %ebx
	movl	%ebx, %esi
	movl	%edx, %eax
	xorb	$0, %ah
	movl	%eax, %edi
	movl	%edi, %eax
	orl	%esi, %eax
	testl	%eax, %eax
	jne	L7
	.loc 2 18 0 is_stmt 0 discriminator 1
	leal	-60(%ebp), %eax
	movl	%eax, %ecx
	call	__ZNSt6vectorIxSaIxEE3endEv
	movl	%eax, %ebx
	leal	-60(%ebp), %eax
	movl	%eax, %ecx
	call	__ZNSt6vectorIxSaIxEE5beginEv
	movl	%ebx, 4(%esp)
	movl	%eax, (%esp)
	call	__ZSt9is_sortedIN9__gnu_cxx17__normal_iteratorIPxSt6vectorIxSaIxEEEEEbT_S7_
	testb	%al, %al
	je	L7
	.loc 2 18 0 discriminator 4
	movl	$1, %eax
	jmp	L8
L7:
	.loc 2 18 0 discriminator 5
	movl	$0, %eax
L8:
	.loc 2 18 0 discriminator 7
	testb	%al, %al
	je	L9
	.loc 2 18 0 discriminator 8
	movl	$LC0, 4(%esp)
	movl	$__ZSt4cout, (%esp)
	call	__ZStlsISt11char_traitsIcEERSt13basic_ostreamIcT_ES5_PKc
	movl	$__ZSt4endlIcSt11char_traitsIcEERSt13basic_ostreamIT_T0_ES6_, (%esp)
	movl	%eax, %ecx
	call	__ZNSolsEPFRSoS_E
	.loc 2 18 0 discriminator 9
	subl	$4, %esp
	jmp	L10
L9:
	.loc 2 19 0 is_stmt 1
	movl	-48(%ebp), %eax
	movl	-44(%ebp), %edx
	testl	%edx, %edx
	js	L11
	testl	%edx, %edx
	jg	L18
	cmpl	$1, %eax
	jbe	L11
L18:
	.loc 2 19 0 is_stmt 0 discriminator 1
	movl	$LC0, 4(%esp)
	movl	$__ZSt4cout, (%esp)
	call	__ZStlsISt11char_traitsIcEERSt13basic_ostreamIcT_ES5_PKc
	movl	$__ZSt4endlIcSt11char_traitsIcEERSt13basic_ostreamIT_T0_ES6_, (%esp)
	movl	%eax, %ecx
	call	__ZNSolsEPFRSoS_E
	.loc 2 19 0 discriminator 2
	subl	$4, %esp
	jmp	L10
L11:
	.loc 2 20 0 is_stmt 1
	movl	$LC1, 4(%esp)
	movl	$__ZSt4cout, (%esp)
	call	__ZStlsISt11char_traitsIcEERSt13basic_ostreamIcT_ES5_PKc
	movl	$__ZSt4endlIcSt11char_traitsIcEERSt13basic_ostreamIT_T0_ES6_, (%esp)
	movl	%eax, %ecx
	call	__ZNSolsEPFRSoS_E
LEHE2:
	.loc 2 20 0 is_stmt 0 discriminator 1
	subl	$4, %esp
L10:
	.loc 2 15 0 is_stmt 1
	leal	-60(%ebp), %eax
	movl	%eax, %ecx
	call	__ZNSt6vectorIxSaIxEED1Ev
	.loc 2 21 0
	jmp	L19
L15:
	movl	%eax, %ebx
	leal	-29(%ebp), %eax
	movl	%eax, %ecx
	call	__ZNSaIxED1Ev
	movl	%ebx, %eax
	movl	%eax, (%esp)
LEHB3:
	call	__Unwind_Resume
L16:
	movl	%eax, %ebx
	.loc 2 15 0
	leal	-60(%ebp), %eax
	movl	%eax, %ecx
	call	__ZNSt6vectorIxSaIxEED1Ev
	movl	%ebx, %eax
	movl	%eax, (%esp)
	call	__Unwind_Resume
LEHE3:
L19:
	.loc 2 21 0
	leal	-12(%ebp), %esp
	popl	%ebx
	.cfi_restore 3
	popl	%esi
	.cfi_restore 6
	popl	%edi
	.cfi_restore 7
	popl	%ebp
	.cfi_restore 5
	.cfi_def_cfa 4, 4
	ret
	.cfi_endproc
LFE7686:
	.def	___gxx_personality_v0;	.scl	2;	.type	32;	.endef
	.section	.gcc_except_table,"w"
LLSDA7686:
	.byte	0xff
	.byte	0xff
	.byte	0x1
	.uleb128 LLSDACSE7686-LLSDACSB7686
LLSDACSB7686:
	.uleb128 LEHB0-LFB7686
	.uleb128 LEHE0-LEHB0
	.uleb128 0
	.uleb128 0
	.uleb128 LEHB1-LFB7686
	.uleb128 LEHE1-LEHB1
	.uleb128 L15-LFB7686
	.uleb128 0
	.uleb128 LEHB2-LFB7686
	.uleb128 LEHE2-LEHB2
	.uleb128 L16-LFB7686
	.uleb128 0
	.uleb128 LEHB3-LFB7686
	.uleb128 LEHE3-LEHB3
	.uleb128 0
	.uleb128 0
LLSDACSE7686:
	.text
	.def	___main;	.scl	2;	.type	32;	.endef
	.globl	_main
	.def	_main;	.scl	2;	.type	32;	.endef
_main:
LFB7687:
	.loc 2 23 0
	.cfi_startproc
	leal	4(%esp), %ecx
	.cfi_def_cfa 1, 0
	andl	$-16, %esp
	pushl	-4(%ecx)
	pushl	%ebp
	.cfi_escape 0x10,0x5,0x2,0x75,0
	movl	%esp, %ebp
	pushl	%ebx
	pushl	%ecx
	.cfi_escape 0xf,0x3,0x75,0x78,0x6
	.cfi_escape 0x10,0x3,0x2,0x75,0x7c
	subl	$32, %esp
	.loc 2 23 0
	call	___main
LVL0:
	.loc 2 24 0
	movl	$0, (%esp)
	call	__ZNSt8ios_base15sync_with_stdioEb
	.loc 2 25 0
	movl	$0, (%esp)
	movl	$__ZSt3cin+8, %ecx
	call	__ZNSt9basic_iosIcSt11char_traitsIcEE3tieEPSo
	subl	$4, %esp
	.loc 2 28 0
	leal	-16(%ebp), %eax
	movl	%eax, (%esp)
	movl	$__ZSt3cin, %ecx
	call	__ZNSirsERx
	subl	$4, %esp
L22:
	.loc 2 29 0
	movl	-16(%ebp), %eax
	movl	-12(%ebp), %edx
	movl	%eax, %ecx
	movl	%edx, %ebx
	addl	$-1, %ecx
	adcl	$-1, %ebx
	movl	%ecx, -16(%ebp)
	movl	%ebx, -12(%ebp)
	movl	%eax, %ecx
	movl	%edx, %ebx
	movl	%ebx, %ebx
	sarl	$31, %ebx
	movl	%ebx, %ecx
	subl	%eax, %ecx
	sbbl	%edx, %ebx
	movl	%ecx, %eax
	movl	%ebx, %edx
	movl	%edx, %eax
	xorl	%edx, %edx
	shrl	$31, %eax
	testb	%al, %al
	je	L21
	.loc 2 30 0
	call	__Z5solvev
	.loc 2 29 0
	jmp	L22
L21:
	.loc 2 33 0
	movl	$0, %eax
	.loc 2 34 0
	leal	-8(%ebp), %esp
	popl	%ecx
	.cfi_restore 1
	.cfi_def_cfa 1, 0
	popl	%ebx
	.cfi_restore 3
	popl	%ebp
	.cfi_restore 5
	leal	-4(%ecx), %esp
	.cfi_def_cfa 4, 4
	ret
	.cfi_endproc
LFE7687:
	.section	.text$_ZNSaIxEC1Ev,"x"
	.linkonce discard
	.align 2
	.globl	__ZNSaIxEC1Ev
	.def	__ZNSaIxEC1Ev;	.scl	2;	.type	32;	.endef
__ZNSaIxEC1Ev:
LFB7959:
	.file 3 "c:/mingw/lib/gcc/mingw32/6.3.0/include/c++/bits/allocator.h"
	.loc 3 131 0
	.cfi_startproc
	pushl	%ebp
	.cfi_def_cfa_offset 8
	.cfi_offset 5, -8
	movl	%esp, %ebp
	.cfi_def_cfa_register 5
	subl	$24, %esp
	movl	%ecx, -12(%ebp)
LBB3:
	.loc 3 131 0
	movl	-12(%ebp), %eax
	movl	%eax, %ecx
	call	__ZN9__gnu_cxx13new_allocatorIxEC2Ev
LBE3:
	nop
	leave
	.cfi_restore 5
	.cfi_def_cfa 4, 4
	ret
	.cfi_endproc
LFE7959:
	.section	.text$_ZNSaIxED2Ev,"x"
	.linkonce discard
	.align 2
	.globl	__ZNSaIxED2Ev
	.def	__ZNSaIxED2Ev;	.scl	2;	.type	32;	.endef
__ZNSaIxED2Ev:
LFB7961:
	.loc 3 139 0
	.cfi_startproc
	pushl	%ebp
	.cfi_def_cfa_offset 8
	.cfi_offset 5, -8
	movl	%esp, %ebp
	.cfi_def_cfa_register 5
	subl	$24, %esp
	movl	%ecx, -12(%ebp)
LBB4:
	.loc 3 139 0
	movl	-12(%ebp), %eax
	movl	%eax, %ecx
	call	__ZN9__gnu_cxx13new_allocatorIxED2Ev
LBE4:
	nop
	leave
	.cfi_restore 5
	.cfi_def_cfa 4, 4
	ret
	.cfi_endproc
LFE7961:
	.section	.text$_ZNSaIxED1Ev,"x"
	.linkonce discard
	.align 2
	.globl	__ZNSaIxED1Ev
	.def	__ZNSaIxED1Ev;	.scl	2;	.type	32;	.endef
__ZNSaIxED1Ev:
LFB7962:
	.loc 3 139 0
	.cfi_startproc
	pushl	%ebp
	.cfi_def_cfa_offset 8
	.cfi_offset 5, -8
	movl	%esp, %ebp
	.cfi_def_cfa_register 5
	subl	$24, %esp
	movl	%ecx, -12(%ebp)
LBB5:
	.loc 3 139 0
	movl	-12(%ebp), %eax
	movl	%eax, %ecx
	call	__ZN9__gnu_cxx13new_allocatorIxED2Ev
LBE5:
	nop
	leave
	.cfi_restore 5
	.cfi_def_cfa 4, 4
	ret
	.cfi_endproc
LFE7962:
	.section	.text$_ZNSt6vectorIxSaIxEEC1EjRKS0_,"x"
	.linkonce discard
	.align 2
	.globl	__ZNSt6vectorIxSaIxEEC1EjRKS0_
	.def	__ZNSt6vectorIxSaIxEEC1EjRKS0_;	.scl	2;	.type	32;	.endef
__ZNSt6vectorIxSaIxEEC1EjRKS0_:
LFB7965:
	.file 4 "c:/mingw/lib/gcc/mingw32/6.3.0/include/c++/bits/stl_vector.h"
	.loc 4 279 0
	.cfi_startproc
	.cfi_personality 0,___gxx_personality_v0
	.cfi_lsda 0,LLSDA7965
	pushl	%ebp
	.cfi_def_cfa_offset 8
	.cfi_offset 5, -8
	movl	%esp, %ebp
	.cfi_def_cfa_register 5
	pushl	%ebx
	subl	$36, %esp
	.cfi_offset 3, -12
	movl	%ecx, -12(%ebp)
LBB6:
	.loc 4 280 0
	movl	-12(%ebp), %eax
	movl	12(%ebp), %edx
	movl	%edx, 4(%esp)
	movl	8(%ebp), %edx
	movl	%edx, (%esp)
	movl	%eax, %ecx
LEHB4:
	call	__ZNSt12_Vector_baseIxSaIxEEC2EjRKS0_
LEHE4:
	subl	$8, %esp
	.loc 4 281 0
	movl	-12(%ebp), %eax
	movl	8(%ebp), %edx
	movl	%edx, (%esp)
	movl	%eax, %ecx
LEHB5:
	call	__ZNSt6vectorIxSaIxEE21_M_default_initializeEj
LEHE5:
	subl	$4, %esp
LBE6:
	jmp	L30
L29:
	movl	%eax, %ebx
LBB7:
	.loc 4 280 0
	movl	-12(%ebp), %eax
	movl	%eax, %ecx
	call	__ZNSt12_Vector_baseIxSaIxEED2Ev
	movl	%ebx, %eax
	movl	%eax, (%esp)
LEHB6:
	call	__Unwind_Resume
LEHE6:
L30:
LBE7:
	.loc 4 281 0
	movl	-4(%ebp), %ebx
	leave
	.cfi_restore 5
	.cfi_restore 3
	.cfi_def_cfa 4, 4
	ret	$8
	.cfi_endproc
LFE7965:
	.section	.gcc_except_table,"w"
LLSDA7965:
	.byte	0xff
	.byte	0xff
	.byte	0x1
	.uleb128 LLSDACSE7965-LLSDACSB7965
LLSDACSB7965:
	.uleb128 LEHB4-LFB7965
	.uleb128 LEHE4-LEHB4
	.uleb128 0
	.uleb128 0
	.uleb128 LEHB5-LFB7965
	.uleb128 LEHE5-LEHB5
	.uleb128 L29-LFB7965
	.uleb128 0
	.uleb128 LEHB6-LFB7965
	.uleb128 LEHE6-LEHB6
	.uleb128 0
	.uleb128 0
LLSDACSE7965:
	.section	.text$_ZNSt6vectorIxSaIxEEC1EjRKS0_,"x"
	.linkonce discard
	.section	.text$_ZNSt6vectorIxSaIxEED1Ev,"x"
	.linkonce discard
	.align 2
	.globl	__ZNSt6vectorIxSaIxEED1Ev
	.def	__ZNSt6vectorIxSaIxEED1Ev;	.scl	2;	.type	32;	.endef
__ZNSt6vectorIxSaIxEED1Ev:
LFB7968:
	.loc 4 425 0
	.cfi_startproc
	.cfi_personality 0,___gxx_personality_v0
	.cfi_lsda 0,LLSDA7968
	pushl	%ebp
	.cfi_def_cfa_offset 8
	.cfi_offset 5, -8
	movl	%esp, %ebp
	.cfi_def_cfa_register 5
	subl	$40, %esp
	movl	%ecx, -12(%ebp)
LBB8:
	.loc 4 427 0
	movl	-12(%ebp), %eax
	movl	%eax, %ecx
	call	__ZNSt12_Vector_baseIxSaIxEE19_M_get_Tp_allocatorEv
	movl	%eax, %ecx
	.loc 4 426 0
	movl	-12(%ebp), %eax
	movl	4(%eax), %edx
	movl	-12(%ebp), %eax
	movl	(%eax), %eax
	movl	%ecx, 8(%esp)
	movl	%edx, 4(%esp)
	movl	%eax, (%esp)
	call	__ZSt8_DestroyIPxxEvT_S1_RSaIT0_E
	.loc 4 427 0
	movl	-12(%ebp), %eax
	movl	%eax, %ecx
	call	__ZNSt12_Vector_baseIxSaIxEED2Ev
LBE8:
	nop
	leave
	.cfi_restore 5
	.cfi_def_cfa 4, 4
	ret
	.cfi_endproc
LFE7968:
	.section	.gcc_except_table,"w"
LLSDA7968:
	.byte	0xff
	.byte	0xff
	.byte	0x1
	.uleb128 LLSDACSE7968-LLSDACSB7968
LLSDACSB7968:
LLSDACSE7968:
	.section	.text$_ZNSt6vectorIxSaIxEED1Ev,"x"
	.linkonce discard
	.section	.text$_ZNSt6vectorIxSaIxEEixEj,"x"
	.linkonce discard
	.align 2
	.globl	__ZNSt6vectorIxSaIxEEixEj
	.def	__ZNSt6vectorIxSaIxEEixEj;	.scl	2;	.type	32;	.endef
__ZNSt6vectorIxSaIxEEixEj:
LFB7969:
	.loc 4 780 0
	.cfi_startproc
	pushl	%ebp
	.cfi_def_cfa_offset 8
	.cfi_offset 5, -8
	movl	%esp, %ebp
	.cfi_def_cfa_register 5
	subl	$4, %esp
	movl	%ecx, -4(%ebp)
	.loc 4 781 0
	movl	-4(%ebp), %eax
	movl	(%eax), %eax
	movl	8(%ebp), %edx
	sall	$3, %edx
	addl	%edx, %eax
	leave
	.cfi_restore 5
	.cfi_def_cfa 4, 4
	ret	$4
	.cfi_endproc
LFE7969:
	.section	.text$_ZNSt6vectorIxSaIxEE5beginEv,"x"
	.linkonce discard
	.align 2
	.globl	__ZNSt6vectorIxSaIxEE5beginEv
	.def	__ZNSt6vectorIxSaIxEE5beginEv;	.scl	2;	.type	32;	.endef
__ZNSt6vectorIxSaIxEE5beginEv:
LFB7970:
	.loc 4 548 0
	.cfi_startproc
	pushl	%ebp
	.cfi_def_cfa_offset 8
	.cfi_offset 5, -8
	movl	%esp, %ebp
	.cfi_def_cfa_register 5
	subl	$56, %esp
	movl	%ecx, -28(%ebp)
	.loc 4 549 0
	movl	-28(%ebp), %edx
	leal	-12(%ebp), %eax
	movl	%edx, (%esp)
	movl	%eax, %ecx
	call	__ZN9__gnu_cxx17__normal_iteratorIPxSt6vectorIxSaIxEEEC1ERKS1_
	subl	$4, %esp
	movl	-12(%ebp), %eax
	leave
	.cfi_restore 5
	.cfi_def_cfa 4, 4
	ret
	.cfi_endproc
LFE7970:
	.section	.text$_ZNSt6vectorIxSaIxEE3endEv,"x"
	.linkonce discard
	.align 2
	.globl	__ZNSt6vectorIxSaIxEE3endEv
	.def	__ZNSt6vectorIxSaIxEE3endEv;	.scl	2;	.type	32;	.endef
__ZNSt6vectorIxSaIxEE3endEv:
LFB7971:
	.loc 4 566 0
	.cfi_startproc
	pushl	%ebp
	.cfi_def_cfa_offset 8
	.cfi_offset 5, -8
	movl	%esp, %ebp
	.cfi_def_cfa_register 5
	subl	$56, %esp
	movl	%ecx, -28(%ebp)
	.loc 4 567 0
	movl	-28(%ebp), %eax
	leal	4(%eax), %edx
	leal	-12(%ebp), %eax
	movl	%edx, (%esp)
	movl	%eax, %ecx
	call	__ZN9__gnu_cxx17__normal_iteratorIPxSt6vectorIxSaIxEEEC1ERKS1_
	subl	$4, %esp
	movl	-12(%ebp), %eax
	leave
	.cfi_restore 5
	.cfi_def_cfa 4, 4
	ret
	.cfi_endproc
LFE7971:
	.section	.text$_ZSt9is_sortedIN9__gnu_cxx17__normal_iteratorIPxSt6vectorIxSaIxEEEEEbT_S7_,"x"
	.linkonce discard
	.globl	__ZSt9is_sortedIN9__gnu_cxx17__normal_iteratorIPxSt6vectorIxSaIxEEEEEbT_S7_
	.def	__ZSt9is_sortedIN9__gnu_cxx17__normal_iteratorIPxSt6vectorIxSaIxEEEEEbT_S7_;	.scl	2;	.type	32;	.endef
__ZSt9is_sortedIN9__gnu_cxx17__normal_iteratorIPxSt6vectorIxSaIxEEEEEbT_S7_:
LFB7972:
	.file 5 "c:/mingw/lib/gcc/mingw32/6.3.0/include/c++/bits/stl_algo.h"
	.loc 5 3206 0
	.cfi_startproc
	pushl	%ebp
	.cfi_def_cfa_offset 8
	.cfi_offset 5, -8
	movl	%esp, %ebp
	.cfi_def_cfa_register 5
	subl	$40, %esp
	.loc 5 3207 0
	movl	12(%ebp), %eax
	movl	%eax, 4(%esp)
	movl	8(%ebp), %eax
	movl	%eax, (%esp)
	call	__ZSt15is_sorted_untilIN9__gnu_cxx17__normal_iteratorIPxSt6vectorIxSaIxEEEEET_S7_S7_
	movl	%eax, -12(%ebp)
	leal	12(%ebp), %eax
	movl	%eax, 4(%esp)
	leal	-12(%ebp), %eax
	movl	%eax, (%esp)
	call	__ZN9__gnu_cxxeqIPxSt6vectorIxSaIxEEEEbRKNS_17__normal_iteratorIT_T0_EESA_
	leave
	.cfi_restore 5
	.cfi_def_cfa 4, 4
	ret
	.cfi_endproc
LFE7972:
	.section	.text$_ZN9__gnu_cxx13new_allocatorIxEC2Ev,"x"
	.linkonce discard
	.align 2
	.globl	__ZN9__gnu_cxx13new_allocatorIxEC2Ev
	.def	__ZN9__gnu_cxx13new_allocatorIxEC2Ev;	.scl	2;	.type	32;	.endef
__ZN9__gnu_cxx13new_allocatorIxEC2Ev:
LFB8086:
	.file 6 "c:/mingw/lib/gcc/mingw32/6.3.0/include/c++/ext/new_allocator.h"
	.loc 6 79 0
	.cfi_startproc
	pushl	%ebp
	.cfi_def_cfa_offset 8
	.cfi_offset 5, -8
	movl	%esp, %ebp
	.cfi_def_cfa_register 5
	subl	$4, %esp
	movl	%ecx, -4(%ebp)
	.loc 6 79 0
	nop
	leave
	.cfi_restore 5
	.cfi_def_cfa 4, 4
	ret
	.cfi_endproc
LFE8086:
	.section	.text$_ZN9__gnu_cxx13new_allocatorIxED2Ev,"x"
	.linkonce discard
	.align 2
	.globl	__ZN9__gnu_cxx13new_allocatorIxED2Ev
	.def	__ZN9__gnu_cxx13new_allocatorIxED2Ev;	.scl	2;	.type	32;	.endef
__ZN9__gnu_cxx13new_allocatorIxED2Ev:
LFB8089:
	.loc 6 86 0
	.cfi_startproc
	pushl	%ebp
	.cfi_def_cfa_offset 8
	.cfi_offset 5, -8
	movl	%esp, %ebp
	.cfi_def_cfa_register 5
	subl	$4, %esp
	movl	%ecx, -4(%ebp)
	.loc 6 86 0
	nop
	leave
	.cfi_restore 5
	.cfi_def_cfa 4, 4
	ret
	.cfi_endproc
LFE8089:
	.section	.text$_ZNSt12_Vector_baseIxSaIxEE12_Vector_implD1Ev,"x"
	.linkonce discard
	.align 2
	.globl	__ZNSt12_Vector_baseIxSaIxEE12_Vector_implD1Ev
	.def	__ZNSt12_Vector_baseIxSaIxEE12_Vector_implD1Ev;	.scl	2;	.type	32;	.endef
__ZNSt12_Vector_baseIxSaIxEE12_Vector_implD1Ev:
LFB8094:
	.loc 4 79 0
	.cfi_startproc
	pushl	%ebp
	.cfi_def_cfa_offset 8
	.cfi_offset 5, -8
	movl	%esp, %ebp
	.cfi_def_cfa_register 5
	subl	$24, %esp
	movl	%ecx, -12(%ebp)
LBB9:
	.loc 4 79 0
	movl	-12(%ebp), %eax
	movl	%eax, %ecx
	call	__ZNSaIxED2Ev
LBE9:
	nop
	leave
	.cfi_restore 5
	.cfi_def_cfa 4, 4
	ret
	.cfi_endproc
LFE8094:
	.section	.text$_ZNSt12_Vector_baseIxSaIxEEC2EjRKS0_,"x"
	.linkonce discard
	.align 2
	.globl	__ZNSt12_Vector_baseIxSaIxEEC2EjRKS0_
	.def	__ZNSt12_Vector_baseIxSaIxEEC2EjRKS0_;	.scl	2;	.type	32;	.endef
__ZNSt12_Vector_baseIxSaIxEEC2EjRKS0_:
LFB8095:
	.loc 4 134 0
	.cfi_startproc
	.cfi_personality 0,___gxx_personality_v0
	.cfi_lsda 0,LLSDA8095
	pushl	%ebp
	.cfi_def_cfa_offset 8
	.cfi_offset 5, -8
	movl	%esp, %ebp
	.cfi_def_cfa_register 5
	pushl	%ebx
	subl	$36, %esp
	.cfi_offset 3, -12
	movl	%ecx, -12(%ebp)
LBB10:
	.loc 4 135 0
	movl	-12(%ebp), %eax
	movl	12(%ebp), %edx
	movl	%edx, (%esp)
	movl	%eax, %ecx
	call	__ZNSt12_Vector_baseIxSaIxEE12_Vector_implC1ERKS0_
	subl	$4, %esp
	.loc 4 136 0
	movl	-12(%ebp), %eax
	movl	8(%ebp), %edx
	movl	%edx, (%esp)
	movl	%eax, %ecx
LEHB7:
	call	__ZNSt12_Vector_baseIxSaIxEE17_M_create_storageEj
LEHE7:
	subl	$4, %esp
LBE10:
	jmp	L46
L45:
	movl	%eax, %ebx
LBB11:
	.loc 4 135 0
	movl	-12(%ebp), %eax
	movl	%eax, %ecx
	call	__ZNSt12_Vector_baseIxSaIxEE12_Vector_implD1Ev
	movl	%ebx, %eax
	movl	%eax, (%esp)
LEHB8:
	call	__Unwind_Resume
LEHE8:
L46:
LBE11:
	.loc 4 136 0
	movl	-4(%ebp), %ebx
	leave
	.cfi_restore 5
	.cfi_restore 3
	.cfi_def_cfa 4, 4
	ret	$8
	.cfi_endproc
LFE8095:
	.section	.gcc_except_table,"w"
LLSDA8095:
	.byte	0xff
	.byte	0xff
	.byte	0x1
	.uleb128 LLSDACSE8095-LLSDACSB8095
LLSDACSB8095:
	.uleb128 LEHB7-LFB8095
	.uleb128 LEHE7-LEHB7
	.uleb128 L45-LFB8095
	.uleb128 0
	.uleb128 LEHB8-LFB8095
	.uleb128 LEHE8-LEHB8
	.uleb128 0
	.uleb128 0
LLSDACSE8095:
	.section	.text$_ZNSt12_Vector_baseIxSaIxEEC2EjRKS0_,"x"
	.linkonce discard
	.section	.text$_ZNSt12_Vector_baseIxSaIxEED2Ev,"x"
	.linkonce discard
	.align 2
	.globl	__ZNSt12_Vector_baseIxSaIxEED2Ev
	.def	__ZNSt12_Vector_baseIxSaIxEED2Ev;	.scl	2;	.type	32;	.endef
__ZNSt12_Vector_baseIxSaIxEED2Ev:
LFB8098:
	.loc 4 159 0
	.cfi_startproc
	.cfi_personality 0,___gxx_personality_v0
	.cfi_lsda 0,LLSDA8098
	pushl	%ebp
	.cfi_def_cfa_offset 8
	.cfi_offset 5, -8
	movl	%esp, %ebp
	.cfi_def_cfa_register 5
	subl	$40, %esp
	movl	%ecx, -12(%ebp)
LBB12:
	.loc 4 160 0
	movl	-12(%ebp), %eax
	movl	8(%eax), %eax
	.loc 4 161 0
	movl	%eax, %edx
	movl	-12(%ebp), %eax
	movl	(%eax), %eax
	subl	%eax, %edx
	movl	%edx, %eax
	.loc 4 160 0
	sarl	$3, %eax
	movl	%eax, %ecx
	movl	-12(%ebp), %eax
	movl	(%eax), %edx
	movl	-12(%ebp), %eax
	movl	%ecx, 4(%esp)
	movl	%edx, (%esp)
	movl	%eax, %ecx
	call	__ZNSt12_Vector_baseIxSaIxEE13_M_deallocateEPxj
	subl	$8, %esp
	.loc 4 161 0
	movl	-12(%ebp), %eax
	movl	%eax, %ecx
	call	__ZNSt12_Vector_baseIxSaIxEE12_Vector_implD1Ev
LBE12:
	nop
	leave
	.cfi_restore 5
	.cfi_def_cfa 4, 4
	ret
	.cfi_endproc
LFE8098:
	.section	.gcc_except_table,"w"
LLSDA8098:
	.byte	0xff
	.byte	0xff
	.byte	0x1
	.uleb128 LLSDACSE8098-LLSDACSB8098
LLSDACSB8098:
LLSDACSE8098:
	.section	.text$_ZNSt12_Vector_baseIxSaIxEED2Ev,"x"
	.linkonce discard
	.section	.text$_ZNSt6vectorIxSaIxEE21_M_default_initializeEj,"x"
	.linkonce discard
	.align 2
	.globl	__ZNSt6vectorIxSaIxEE21_M_default_initializeEj
	.def	__ZNSt6vectorIxSaIxEE21_M_default_initializeEj;	.scl	2;	.type	32;	.endef
__ZNSt6vectorIxSaIxEE21_M_default_initializeEj:
LFB8100:
	.loc 4 1306 0
	.cfi_startproc
	pushl	%ebp
	.cfi_def_cfa_offset 8
	.cfi_offset 5, -8
	movl	%esp, %ebp
	.cfi_def_cfa_register 5
	subl	$40, %esp
	movl	%ecx, -12(%ebp)
	.loc 4 1310 0
	movl	-12(%ebp), %eax
	movl	%eax, %ecx
	call	__ZNSt12_Vector_baseIxSaIxEE19_M_get_Tp_allocatorEv
	movl	%eax, %edx
	.loc 4 1309 0
	movl	-12(%ebp), %eax
	movl	(%eax), %eax
	movl	%edx, 8(%esp)
	movl	8(%ebp), %edx
	movl	%edx, 4(%esp)
	movl	%eax, (%esp)
	call	__ZSt27__uninitialized_default_n_aIPxjxET_S1_T0_RSaIT1_E
	movl	%eax, %edx
	.loc 4 1308 0
	movl	-12(%ebp), %eax
	movl	%edx, 4(%eax)
	.loc 4 1311 0
	nop
	leave
	.cfi_restore 5
	.cfi_def_cfa 4, 4
	ret	$4
	.cfi_endproc
LFE8100:
	.section	.text$_ZNSt12_Vector_baseIxSaIxEE19_M_get_Tp_allocatorEv,"x"
	.linkonce discard
	.align 2
	.globl	__ZNSt12_Vector_baseIxSaIxEE19_M_get_Tp_allocatorEv
	.def	__ZNSt12_Vector_baseIxSaIxEE19_M_get_Tp_allocatorEv;	.scl	2;	.type	32;	.endef
__ZNSt12_Vector_baseIxSaIxEE19_M_get_Tp_allocatorEv:
LFB8101:
	.loc 4 113 0
	.cfi_startproc
	pushl	%ebp
	.cfi_def_cfa_offset 8
	.cfi_offset 5, -8
	movl	%esp, %ebp
	.cfi_def_cfa_register 5
	subl	$4, %esp
	movl	%ecx, -4(%ebp)
	.loc 4 114 0
	movl	-4(%ebp), %eax
	leave
	.cfi_restore 5
	.cfi_def_cfa 4, 4
	ret
	.cfi_endproc
LFE8101:
	.section	.text$_ZSt8_DestroyIPxxEvT_S1_RSaIT0_E,"x"
	.linkonce discard
	.globl	__ZSt8_DestroyIPxxEvT_S1_RSaIT0_E
	.def	__ZSt8_DestroyIPxxEvT_S1_RSaIT0_E;	.scl	2;	.type	32;	.endef
__ZSt8_DestroyIPxxEvT_S1_RSaIT0_E:
LFB8102:
	.file 7 "c:/mingw/lib/gcc/mingw32/6.3.0/include/c++/bits/stl_construct.h"
	.loc 7 148 0
	.cfi_startproc
	pushl	%ebp
	.cfi_def_cfa_offset 8
	.cfi_offset 5, -8
	movl	%esp, %ebp
	.cfi_def_cfa_register 5
	subl	$24, %esp
	.loc 7 151 0
	movl	12(%ebp), %eax
	movl	%eax, 4(%esp)
	movl	8(%ebp), %eax
	movl	%eax, (%esp)
	call	__ZSt8_DestroyIPxEvT_S1_
	.loc 7 152 0
	nop
	leave
	.cfi_restore 5
	.cfi_def_cfa 4, 4
	ret
	.cfi_endproc
LFE8102:
	.section	.text$_ZN9__gnu_cxx17__normal_iteratorIPxSt6vectorIxSaIxEEEC1ERKS1_,"x"
	.linkonce discard
	.align 2
	.globl	__ZN9__gnu_cxx17__normal_iteratorIPxSt6vectorIxSaIxEEEC1ERKS1_
	.def	__ZN9__gnu_cxx17__normal_iteratorIPxSt6vectorIxSaIxEEEC1ERKS1_;	.scl	2;	.type	32;	.endef
__ZN9__gnu_cxx17__normal_iteratorIPxSt6vectorIxSaIxEEEC1ERKS1_:
LFB8105:
	.file 8 "c:/mingw/lib/gcc/mingw32/6.3.0/include/c++/bits/stl_iterator.h"
	.loc 8 776 0
	.cfi_startproc
	pushl	%ebp
	.cfi_def_cfa_offset 8
	.cfi_offset 5, -8
	movl	%esp, %ebp
	.cfi_def_cfa_register 5
	subl	$4, %esp
	movl	%ecx, -4(%ebp)
LBB13:
	.loc 8 777 0
	movl	8(%ebp), %eax
	movl	(%eax), %edx
	movl	-4(%ebp), %eax
	movl	%edx, (%eax)
LBE13:
	nop
	leave
	.cfi_restore 5
	.cfi_def_cfa 4, 4
	ret	$4
	.cfi_endproc
LFE8105:
	.section	.text$_ZSt15is_sorted_untilIN9__gnu_cxx17__normal_iteratorIPxSt6vectorIxSaIxEEEEET_S7_S7_,"x"
	.linkonce discard
	.globl	__ZSt15is_sorted_untilIN9__gnu_cxx17__normal_iteratorIPxSt6vectorIxSaIxEEEEET_S7_S7_
	.def	__ZSt15is_sorted_untilIN9__gnu_cxx17__normal_iteratorIPxSt6vectorIxSaIxEEEEET_S7_S7_;	.scl	2;	.type	32;	.endef
__ZSt15is_sorted_untilIN9__gnu_cxx17__normal_iteratorIPxSt6vectorIxSaIxEEEEET_S7_S7_:
LFB8106:
	.loc 5 3249 0
	.cfi_startproc
	pushl	%ebp
	.cfi_def_cfa_offset 8
	.cfi_offset 5, -8
	movl	%esp, %ebp
	.cfi_def_cfa_register 5
	pushl	%ebx
	subl	$36, %esp
	.cfi_offset 3, -12
	.loc 5 3259 0
	call	__ZN9__gnu_cxx5__ops16__iter_less_iterEv
	movb	%bl, 8(%esp)
	movl	12(%ebp), %eax
	movl	%eax, 4(%esp)
	movl	8(%ebp), %eax
	movl	%eax, (%esp)
	call	__ZSt17__is_sorted_untilIN9__gnu_cxx17__normal_iteratorIPxSt6vectorIxSaIxEEEENS0_5__ops15_Iter_less_iterEET_S9_S9_T0_
	.loc 5 3260 0
	addl	$36, %esp
	popl	%ebx
	.cfi_restore 3
	popl	%ebp
	.cfi_restore 5
	.cfi_def_cfa 4, 4
	ret
	.cfi_endproc
LFE8106:
	.section	.text$_ZN9__gnu_cxxeqIPxSt6vectorIxSaIxEEEEbRKNS_17__normal_iteratorIT_T0_EESA_,"x"
	.linkonce discard
	.globl	__ZN9__gnu_cxxeqIPxSt6vectorIxSaIxEEEEbRKNS_17__normal_iteratorIT_T0_EESA_
	.def	__ZN9__gnu_cxxeqIPxSt6vectorIxSaIxEEEEbRKNS_17__normal_iteratorIT_T0_EESA_;	.scl	2;	.type	32;	.endef
__ZN9__gnu_cxxeqIPxSt6vectorIxSaIxEEEEbRKNS_17__normal_iteratorIT_T0_EESA_:
LFB8107:
	.loc 8 863 0
	.cfi_startproc
	pushl	%ebp
	.cfi_def_cfa_offset 8
	.cfi_offset 5, -8
	movl	%esp, %ebp
	.cfi_def_cfa_register 5
	pushl	%ebx
	subl	$4, %esp
	.cfi_offset 3, -12
	.loc 8 866 0
	movl	8(%ebp), %ecx
	call	__ZNK9__gnu_cxx17__normal_iteratorIPxSt6vectorIxSaIxEEE4baseEv
	movl	(%eax), %ebx
	movl	12(%ebp), %eax
	movl	%eax, %ecx
	call	__ZNK9__gnu_cxx17__normal_iteratorIPxSt6vectorIxSaIxEEE4baseEv
	movl	(%eax), %eax
	cmpl	%eax, %ebx
	sete	%al
	addl	$4, %esp
	popl	%ebx
	.cfi_restore 3
	popl	%ebp
	.cfi_restore 5
	.cfi_def_cfa 4, 4
	ret
	.cfi_endproc
LFE8107:
	.section	.text$_ZNSt12_Vector_baseIxSaIxEE12_Vector_implC1ERKS0_,"x"
	.linkonce discard
	.align 2
	.globl	__ZNSt12_Vector_baseIxSaIxEE12_Vector_implC1ERKS0_
	.def	__ZNSt12_Vector_baseIxSaIxEE12_Vector_implC1ERKS0_;	.scl	2;	.type	32;	.endef
__ZNSt12_Vector_baseIxSaIxEE12_Vector_implC1ERKS0_:
LFB8155:
	.loc 4 90 0
	.cfi_startproc
	pushl	%ebp
	.cfi_def_cfa_offset 8
	.cfi_offset 5, -8
	movl	%esp, %ebp
	.cfi_def_cfa_register 5
	subl	$40, %esp
	movl	%ecx, -12(%ebp)
LBB14:
	.loc 4 91 0
	movl	-12(%ebp), %eax
	movl	8(%ebp), %edx
	movl	%edx, (%esp)
	movl	%eax, %ecx
	call	__ZNSaIxEC2ERKS_
	subl	$4, %esp
	movl	-12(%ebp), %eax
	movl	$0, (%eax)
	movl	-12(%ebp), %eax
	movl	$0, 4(%eax)
	movl	-12(%ebp), %eax
	movl	$0, 8(%eax)
LBE14:
	.loc 4 92 0
	nop
	leave
	.cfi_restore 5
	.cfi_def_cfa 4, 4
	ret	$4
	.cfi_endproc
LFE8155:
	.section	.text$_ZNSt12_Vector_baseIxSaIxEE17_M_create_storageEj,"x"
	.linkonce discard
	.align 2
	.globl	__ZNSt12_Vector_baseIxSaIxEE17_M_create_storageEj
	.def	__ZNSt12_Vector_baseIxSaIxEE17_M_create_storageEj;	.scl	2;	.type	32;	.endef
__ZNSt12_Vector_baseIxSaIxEE17_M_create_storageEj:
LFB8156:
	.loc 4 183 0
	.cfi_startproc
	pushl	%ebp
	.cfi_def_cfa_offset 8
	.cfi_offset 5, -8
	movl	%esp, %ebp
	.cfi_def_cfa_register 5
	subl	$40, %esp
	movl	%ecx, -12(%ebp)
	.loc 4 185 0
	movl	-12(%ebp), %eax
	movl	8(%ebp), %edx
	movl	%edx, (%esp)
	movl	%eax, %ecx
	call	__ZNSt12_Vector_baseIxSaIxEE11_M_allocateEj
	subl	$4, %esp
	movl	%eax, %edx
	movl	-12(%ebp), %eax
	movl	%edx, (%eax)
	.loc 4 186 0
	movl	-12(%ebp), %eax
	movl	(%eax), %edx
	movl	-12(%ebp), %eax
	movl	%edx, 4(%eax)
	.loc 4 187 0
	movl	-12(%ebp), %eax
	movl	(%eax), %eax
	movl	8(%ebp), %edx
	sall	$3, %edx
	addl	%eax, %edx
	movl	-12(%ebp), %eax
	movl	%edx, 8(%eax)
	.loc 4 188 0
	nop
	leave
	.cfi_restore 5
	.cfi_def_cfa 4, 4
	ret	$4
	.cfi_endproc
LFE8156:
	.section	.text$_ZNSt12_Vector_baseIxSaIxEE13_M_deallocateEPxj,"x"
	.linkonce discard
	.align 2
	.globl	__ZNSt12_Vector_baseIxSaIxEE13_M_deallocateEPxj
	.def	__ZNSt12_Vector_baseIxSaIxEE13_M_deallocateEPxj;	.scl	2;	.type	32;	.endef
__ZNSt12_Vector_baseIxSaIxEE13_M_deallocateEPxj:
LFB8157:
	.loc 4 174 0
	.cfi_startproc
	pushl	%ebp
	.cfi_def_cfa_offset 8
	.cfi_offset 5, -8
	movl	%esp, %ebp
	.cfi_def_cfa_register 5
	subl	$40, %esp
	movl	%ecx, -12(%ebp)
	.loc 4 177 0
	cmpl	$0, 8(%ebp)
	je	L61
	.loc 4 178 0
	movl	-12(%ebp), %eax
	movl	12(%ebp), %edx
	movl	%edx, 8(%esp)
	movl	8(%ebp), %edx
	movl	%edx, 4(%esp)
	movl	%eax, (%esp)
	call	__ZNSt16allocator_traitsISaIxEE10deallocateERS0_Pxj
L61:
	.loc 4 179 0
	nop
	leave
	.cfi_restore 5
	.cfi_def_cfa 4, 4
	ret	$8
	.cfi_endproc
LFE8157:
	.section	.text$_ZSt27__uninitialized_default_n_aIPxjxET_S1_T0_RSaIT1_E,"x"
	.linkonce discard
	.globl	__ZSt27__uninitialized_default_n_aIPxjxET_S1_T0_RSaIT1_E
	.def	__ZSt27__uninitialized_default_n_aIPxjxET_S1_T0_RSaIT1_E;	.scl	2;	.type	32;	.endef
__ZSt27__uninitialized_default_n_aIPxjxET_S1_T0_RSaIT1_E:
LFB8158:
	.file 9 "c:/mingw/lib/gcc/mingw32/6.3.0/include/c++/bits/stl_uninitialized.h"
	.loc 9 635 0
	.cfi_startproc
	pushl	%ebp
	.cfi_def_cfa_offset 8
	.cfi_offset 5, -8
	movl	%esp, %ebp
	.cfi_def_cfa_register 5
	subl	$24, %esp
	.loc 9 637 0
	movl	12(%ebp), %eax
	movl	%eax, 4(%esp)
	movl	8(%ebp), %eax
	movl	%eax, (%esp)
	call	__ZSt25__uninitialized_default_nIPxjET_S1_T0_
	leave
	.cfi_restore 5
	.cfi_def_cfa 4, 4
	ret
	.cfi_endproc
LFE8158:
	.section	.text$_ZSt8_DestroyIPxEvT_S1_,"x"
	.linkonce discard
	.globl	__ZSt8_DestroyIPxEvT_S1_
	.def	__ZSt8_DestroyIPxEvT_S1_;	.scl	2;	.type	32;	.endef
__ZSt8_DestroyIPxEvT_S1_:
LFB8159:
	.loc 7 122 0
	.cfi_startproc
	pushl	%ebp
	.cfi_def_cfa_offset 8
	.cfi_offset 5, -8
	movl	%esp, %ebp
	.cfi_def_cfa_register 5
	subl	$24, %esp
	.loc 7 126 0
	movl	12(%ebp), %eax
	movl	%eax, 4(%esp)
	movl	8(%ebp), %eax
	movl	%eax, (%esp)
	call	__ZNSt12_Destroy_auxILb1EE9__destroyIPxEEvT_S3_
	.loc 7 128 0
	nop
	leave
	.cfi_restore 5
	.cfi_def_cfa 4, 4
	ret
	.cfi_endproc
LFE8159:
	.section	.text$_ZNK9__gnu_cxx5__ops15_Iter_less_iterclINS_17__normal_iteratorIPxSt6vectorIxSaIxEEEES8_EEbT_T0_,"x"
	.linkonce discard
	.align 2
	.globl	__ZNK9__gnu_cxx5__ops15_Iter_less_iterclINS_17__normal_iteratorIPxSt6vectorIxSaIxEEEES8_EEbT_T0_
	.def	__ZNK9__gnu_cxx5__ops15_Iter_less_iterclINS_17__normal_iteratorIPxSt6vectorIxSaIxEEEES8_EEbT_T0_;	.scl	2;	.type	32;	.endef
__ZNK9__gnu_cxx5__ops15_Iter_less_iterclINS_17__normal_iteratorIPxSt6vectorIxSaIxEEEES8_EEbT_T0_:
LFB8161:
	.loc 1 42 0
	.cfi_startproc
	pushl	%ebp
	.cfi_def_cfa_offset 8
	.cfi_offset 5, -8
	movl	%esp, %ebp
	.cfi_def_cfa_register 5
	pushl	%esi
	pushl	%ebx
	subl	$16, %esp
	.cfi_offset 6, -12
	.cfi_offset 3, -16
	movl	%ecx, -12(%ebp)
	.loc 1 43 0
	leal	8(%ebp), %ecx
	call	__ZNK9__gnu_cxx17__normal_iteratorIPxSt6vectorIxSaIxEEEdeEv
	movl	(%eax), %ebx
	movl	4(%eax), %esi
	leal	12(%ebp), %eax
	movl	%eax, %ecx
	call	__ZNK9__gnu_cxx17__normal_iteratorIPxSt6vectorIxSaIxEEEdeEv
	movl	4(%eax), %edx
	movl	(%eax), %eax
	movl	$1, %ecx
	cmpl	%edx, %esi
	jl	L68
	cmpl	%edx, %esi
	jg	L67
	cmpl	%eax, %ebx
	jb	L68
L67:
	movl	$0, %ecx
L68:
	.loc 1 43 0 is_stmt 0 discriminator 1
	movl	%ecx, %eax
	addl	$16, %esp
	popl	%ebx
	.cfi_restore 3
	popl	%esi
	.cfi_restore 6
	popl	%ebp
	.cfi_restore 5
	.cfi_def_cfa 4, 4
	ret	$8
	.cfi_endproc
LFE8161:
	.section	.text$_ZSt17__is_sorted_untilIN9__gnu_cxx17__normal_iteratorIPxSt6vectorIxSaIxEEEENS0_5__ops15_Iter_less_iterEET_S9_S9_T0_,"x"
	.linkonce discard
	.globl	__ZSt17__is_sorted_untilIN9__gnu_cxx17__normal_iteratorIPxSt6vectorIxSaIxEEEENS0_5__ops15_Iter_less_iterEET_S9_S9_T0_
	.def	__ZSt17__is_sorted_untilIN9__gnu_cxx17__normal_iteratorIPxSt6vectorIxSaIxEEEENS0_5__ops15_Iter_less_iterEET_S9_S9_T0_;	.scl	2;	.type	32;	.endef
__ZSt17__is_sorted_untilIN9__gnu_cxx17__normal_iteratorIPxSt6vectorIxSaIxEEEENS0_5__ops15_Iter_less_iterEET_S9_S9_T0_:
LFB8160:
	.loc 5 3226 0 is_stmt 1
	.cfi_startproc
	pushl	%ebp
	.cfi_def_cfa_offset 8
	.cfi_offset 5, -8
	movl	%esp, %ebp
	.cfi_def_cfa_register 5
	subl	$40, %esp
	.loc 5 3229 0
	leal	12(%ebp), %eax
	movl	%eax, 4(%esp)
	leal	8(%ebp), %eax
	movl	%eax, (%esp)
	call	__ZN9__gnu_cxxeqIPxSt6vectorIxSaIxEEEEbRKNS_17__normal_iteratorIT_T0_EESA_
	testb	%al, %al
	je	L70
	.loc 5 3230 0
	movl	12(%ebp), %eax
	jmp	L75
L70:
	.loc 5 3232 0
	movl	8(%ebp), %eax
	movl	%eax, -12(%ebp)
	.loc 5 3233 0
	leal	-12(%ebp), %eax
	movl	%eax, %ecx
	call	__ZN9__gnu_cxx17__normal_iteratorIPxSt6vectorIxSaIxEEEppEv
L74:
	.loc 5 3233 0 is_stmt 0 discriminator 1
	leal	12(%ebp), %eax
	movl	%eax, 4(%esp)
	leal	-12(%ebp), %eax
	movl	%eax, (%esp)
	call	__ZN9__gnu_cxxneIPxSt6vectorIxSaIxEEEEbRKNS_17__normal_iteratorIT_T0_EESA_
	testb	%al, %al
	je	L72
	.loc 5 3234 0 is_stmt 1
	leal	16(%ebp), %eax
	movl	8(%ebp), %edx
	movl	%edx, 4(%esp)
	movl	-12(%ebp), %edx
	movl	%edx, (%esp)
	movl	%eax, %ecx
	call	__ZNK9__gnu_cxx5__ops15_Iter_less_iterclINS_17__normal_iteratorIPxSt6vectorIxSaIxEEEES8_EEbT_T0_
	subl	$8, %esp
	testb	%al, %al
	je	L73
	.loc 5 3235 0
	movl	-12(%ebp), %eax
	jmp	L75
L73:
	.loc 5 3233 0 discriminator 2
	movl	-12(%ebp), %eax
	movl	%eax, 8(%ebp)
	leal	-12(%ebp), %eax
	movl	%eax, %ecx
	call	__ZN9__gnu_cxx17__normal_iteratorIPxSt6vectorIxSaIxEEEppEv
	jmp	L74
L72:
	.loc 5 3236 0
	movl	-12(%ebp), %eax
L75:
	.loc 5 3237 0 discriminator 1
	leave
	.cfi_restore 5
	.cfi_def_cfa 4, 4
	ret
	.cfi_endproc
LFE8160:
	.section	.text$_ZNK9__gnu_cxx17__normal_iteratorIPxSt6vectorIxSaIxEEE4baseEv,"x"
	.linkonce discard
	.align 2
	.globl	__ZNK9__gnu_cxx17__normal_iteratorIPxSt6vectorIxSaIxEEE4baseEv
	.def	__ZNK9__gnu_cxx17__normal_iteratorIPxSt6vectorIxSaIxEEE4baseEv;	.scl	2;	.type	32;	.endef
__ZNK9__gnu_cxx17__normal_iteratorIPxSt6vectorIxSaIxEEE4baseEv:
LFB8162:
	.loc 8 841 0
	.cfi_startproc
	pushl	%ebp
	.cfi_def_cfa_offset 8
	.cfi_offset 5, -8
	movl	%esp, %ebp
	.cfi_def_cfa_register 5
	subl	$4, %esp
	movl	%ecx, -4(%ebp)
	.loc 8 842 0
	movl	-4(%ebp), %eax
	leave
	.cfi_restore 5
	.cfi_def_cfa 4, 4
	ret
	.cfi_endproc
LFE8162:
	.section	.text$_ZNSaIxEC2ERKS_,"x"
	.linkonce discard
	.align 2
	.globl	__ZNSaIxEC2ERKS_
	.def	__ZNSaIxEC2ERKS_;	.scl	2;	.type	32;	.endef
__ZNSaIxEC2ERKS_:
LFB8207:
	.loc 3 133 0
	.cfi_startproc
	pushl	%ebp
	.cfi_def_cfa_offset 8
	.cfi_offset 5, -8
	movl	%esp, %ebp
	.cfi_def_cfa_register 5
	subl	$40, %esp
	movl	%ecx, -12(%ebp)
LBB15:
	.loc 3 134 0
	movl	-12(%ebp), %eax
	movl	8(%ebp), %edx
	movl	%edx, (%esp)
	movl	%eax, %ecx
	call	__ZN9__gnu_cxx13new_allocatorIxEC2ERKS1_
	subl	$4, %esp
LBE15:
	nop
	leave
	.cfi_restore 5
	.cfi_def_cfa 4, 4
	ret	$4
	.cfi_endproc
LFE8207:
	.section	.text$_ZNSt12_Vector_baseIxSaIxEE11_M_allocateEj,"x"
	.linkonce discard
	.align 2
	.globl	__ZNSt12_Vector_baseIxSaIxEE11_M_allocateEj
	.def	__ZNSt12_Vector_baseIxSaIxEE11_M_allocateEj;	.scl	2;	.type	32;	.endef
__ZNSt12_Vector_baseIxSaIxEE11_M_allocateEj:
LFB8209:
	.loc 4 167 0
	.cfi_startproc
	pushl	%ebp
	.cfi_def_cfa_offset 8
	.cfi_offset 5, -8
	movl	%esp, %ebp
	.cfi_def_cfa_register 5
	subl	$40, %esp
	movl	%ecx, -12(%ebp)
	.loc 4 170 0
	cmpl	$0, 8(%ebp)
	je	L80
	.loc 4 170 0 is_stmt 0 discriminator 1
	movl	-12(%ebp), %eax
	movl	8(%ebp), %edx
	movl	%edx, 4(%esp)
	movl	%eax, (%esp)
	call	__ZNSt16allocator_traitsISaIxEE8allocateERS0_j
	jmp	L82
L80:
	.loc 4 170 0 discriminator 2
	movl	$0, %eax
L82:
	.loc 4 171 0 is_stmt 1 discriminator 5
	leave
	.cfi_restore 5
	.cfi_def_cfa 4, 4
	ret	$4
	.cfi_endproc
LFE8209:
	.section	.text$_ZNSt16allocator_traitsISaIxEE10deallocateERS0_Pxj,"x"
	.linkonce discard
	.globl	__ZNSt16allocator_traitsISaIxEE10deallocateERS0_Pxj
	.def	__ZNSt16allocator_traitsISaIxEE10deallocateERS0_Pxj;	.scl	2;	.type	32;	.endef
__ZNSt16allocator_traitsISaIxEE10deallocateERS0_Pxj:
LFB8210:
	.file 10 "c:/mingw/lib/gcc/mingw32/6.3.0/include/c++/bits/alloc_traits.h"
	.loc 10 441 0
	.cfi_startproc
	pushl	%ebp
	.cfi_def_cfa_offset 8
	.cfi_offset 5, -8
	movl	%esp, %ebp
	.cfi_def_cfa_register 5
	subl	$24, %esp
	.loc 10 442 0
	movl	16(%ebp), %eax
	movl	%eax, 4(%esp)
	movl	12(%ebp), %eax
	movl	%eax, (%esp)
	movl	8(%ebp), %ecx
	call	__ZN9__gnu_cxx13new_allocatorIxE10deallocateEPxj
	subl	$8, %esp
	nop
	leave
	.cfi_restore 5
	.cfi_def_cfa 4, 4
	ret
	.cfi_endproc
LFE8210:
	.section	.text$_ZSt25__uninitialized_default_nIPxjET_S1_T0_,"x"
	.linkonce discard
	.globl	__ZSt25__uninitialized_default_nIPxjET_S1_T0_
	.def	__ZSt25__uninitialized_default_nIPxjET_S1_T0_;	.scl	2;	.type	32;	.endef
__ZSt25__uninitialized_default_nIPxjET_S1_T0_:
LFB8211:
	.loc 9 566 0
	.cfi_startproc
	pushl	%ebp
	.cfi_def_cfa_offset 8
	.cfi_offset 5, -8
	movl	%esp, %ebp
	.cfi_def_cfa_register 5
	subl	$40, %esp
	.loc 9 571 0
	movb	$1, -9(%ebp)
	.loc 9 575 0
	movl	12(%ebp), %eax
	movl	%eax, 4(%esp)
	movl	8(%ebp), %eax
	movl	%eax, (%esp)
	call	__ZNSt27__uninitialized_default_n_1ILb1EE18__uninit_default_nIPxjEET_S3_T0_
	.loc 9 576 0
	leave
	.cfi_restore 5
	.cfi_def_cfa 4, 4
	ret
	.cfi_endproc
LFE8211:
	.section	.text$_ZNSt12_Destroy_auxILb1EE9__destroyIPxEEvT_S3_,"x"
	.linkonce discard
	.globl	__ZNSt12_Destroy_auxILb1EE9__destroyIPxEEvT_S3_
	.def	__ZNSt12_Destroy_auxILb1EE9__destroyIPxEEvT_S3_;	.scl	2;	.type	32;	.endef
__ZNSt12_Destroy_auxILb1EE9__destroyIPxEEvT_S3_:
LFB8212:
	.loc 7 112 0
	.cfi_startproc
	pushl	%ebp
	.cfi_def_cfa_offset 8
	.cfi_offset 5, -8
	movl	%esp, %ebp
	.cfi_def_cfa_register 5
	.loc 7 112 0
	nop
	popl	%ebp
	.cfi_restore 5
	.cfi_def_cfa 4, 4
	ret
	.cfi_endproc
LFE8212:
	.section	.text$_ZN9__gnu_cxx17__normal_iteratorIPxSt6vectorIxSaIxEEEppEv,"x"
	.linkonce discard
	.align 2
	.globl	__ZN9__gnu_cxx17__normal_iteratorIPxSt6vectorIxSaIxEEEppEv
	.def	__ZN9__gnu_cxx17__normal_iteratorIPxSt6vectorIxSaIxEEEppEv;	.scl	2;	.type	32;	.endef
__ZN9__gnu_cxx17__normal_iteratorIPxSt6vectorIxSaIxEEEppEv:
LFB8213:
	.loc 8 797 0
	.cfi_startproc
	pushl	%ebp
	.cfi_def_cfa_offset 8
	.cfi_offset 5, -8
	movl	%esp, %ebp
	.cfi_def_cfa_register 5
	subl	$4, %esp
	movl	%ecx, -4(%ebp)
	.loc 8 799 0
	movl	-4(%ebp), %eax
	movl	(%eax), %eax
	leal	8(%eax), %edx
	movl	-4(%ebp), %eax
	movl	%edx, (%eax)
	.loc 8 800 0
	movl	-4(%ebp), %eax
	.loc 8 801 0
	leave
	.cfi_restore 5
	.cfi_def_cfa 4, 4
	ret
	.cfi_endproc
LFE8213:
	.section	.text$_ZN9__gnu_cxxneIPxSt6vectorIxSaIxEEEEbRKNS_17__normal_iteratorIT_T0_EESA_,"x"
	.linkonce discard
	.globl	__ZN9__gnu_cxxneIPxSt6vectorIxSaIxEEEEbRKNS_17__normal_iteratorIT_T0_EESA_
	.def	__ZN9__gnu_cxxneIPxSt6vectorIxSaIxEEEEbRKNS_17__normal_iteratorIT_T0_EESA_;	.scl	2;	.type	32;	.endef
__ZN9__gnu_cxxneIPxSt6vectorIxSaIxEEEEbRKNS_17__normal_iteratorIT_T0_EESA_:
LFB8214:
	.loc 8 877 0
	.cfi_startproc
	pushl	%ebp
	.cfi_def_cfa_offset 8
	.cfi_offset 5, -8
	movl	%esp, %ebp
	.cfi_def_cfa_register 5
	pushl	%ebx
	subl	$4, %esp
	.cfi_offset 3, -12
	.loc 8 880 0
	movl	8(%ebp), %ecx
	call	__ZNK9__gnu_cxx17__normal_iteratorIPxSt6vectorIxSaIxEEE4baseEv
	movl	(%eax), %ebx
	movl	12(%ebp), %eax
	movl	%eax, %ecx
	call	__ZNK9__gnu_cxx17__normal_iteratorIPxSt6vectorIxSaIxEEE4baseEv
	movl	(%eax), %eax
	cmpl	%eax, %ebx
	setne	%al
	addl	$4, %esp
	popl	%ebx
	.cfi_restore 3
	popl	%ebp
	.cfi_restore 5
	.cfi_def_cfa 4, 4
	ret
	.cfi_endproc
LFE8214:
	.section	.text$_ZNK9__gnu_cxx17__normal_iteratorIPxSt6vectorIxSaIxEEEdeEv,"x"
	.linkonce discard
	.align 2
	.globl	__ZNK9__gnu_cxx17__normal_iteratorIPxSt6vectorIxSaIxEEEdeEv
	.def	__ZNK9__gnu_cxx17__normal_iteratorIPxSt6vectorIxSaIxEEEdeEv;	.scl	2;	.type	32;	.endef
__ZNK9__gnu_cxx17__normal_iteratorIPxSt6vectorIxSaIxEEEdeEv:
LFB8215:
	.loc 8 789 0
	.cfi_startproc
	pushl	%ebp
	.cfi_def_cfa_offset 8
	.cfi_offset 5, -8
	movl	%esp, %ebp
	.cfi_def_cfa_register 5
	subl	$4, %esp
	movl	%ecx, -4(%ebp)
	.loc 8 790 0
	movl	-4(%ebp), %eax
	movl	(%eax), %eax
	leave
	.cfi_restore 5
	.cfi_def_cfa 4, 4
	ret
	.cfi_endproc
LFE8215:
	.section	.text$_ZN9__gnu_cxx13new_allocatorIxEC2ERKS1_,"x"
	.linkonce discard
	.align 2
	.globl	__ZN9__gnu_cxx13new_allocatorIxEC2ERKS1_
	.def	__ZN9__gnu_cxx13new_allocatorIxEC2ERKS1_;	.scl	2;	.type	32;	.endef
__ZN9__gnu_cxx13new_allocatorIxEC2ERKS1_:
LFB8249:
	.loc 6 81 0
	.cfi_startproc
	pushl	%ebp
	.cfi_def_cfa_offset 8
	.cfi_offset 5, -8
	movl	%esp, %ebp
	.cfi_def_cfa_register 5
	subl	$4, %esp
	movl	%ecx, -4(%ebp)
	.loc 6 81 0
	nop
	leave
	.cfi_restore 5
	.cfi_def_cfa 4, 4
	ret	$4
	.cfi_endproc
LFE8249:
	.section	.text$_ZNSt16allocator_traitsISaIxEE8allocateERS0_j,"x"
	.linkonce discard
	.globl	__ZNSt16allocator_traitsISaIxEE8allocateERS0_j
	.def	__ZNSt16allocator_traitsISaIxEE8allocateERS0_j;	.scl	2;	.type	32;	.endef
__ZNSt16allocator_traitsISaIxEE8allocateERS0_j:
LFB8251:
	.loc 10 415 0
	.cfi_startproc
	pushl	%ebp
	.cfi_def_cfa_offset 8
	.cfi_offset 5, -8
	movl	%esp, %ebp
	.cfi_def_cfa_register 5
	subl	$24, %esp
	.loc 10 416 0
	movl	$0, 4(%esp)
	movl	12(%ebp), %eax
	movl	%eax, (%esp)
	movl	8(%ebp), %ecx
	call	__ZN9__gnu_cxx13new_allocatorIxE8allocateEjPKv
	subl	$8, %esp
	leave
	.cfi_restore 5
	.cfi_def_cfa 4, 4
	ret
	.cfi_endproc
LFE8251:
	.section	.text$_ZN9__gnu_cxx13new_allocatorIxE10deallocateEPxj,"x"
	.linkonce discard
	.align 2
	.globl	__ZN9__gnu_cxx13new_allocatorIxE10deallocateEPxj
	.def	__ZN9__gnu_cxx13new_allocatorIxE10deallocateEPxj;	.scl	2;	.type	32;	.endef
__ZN9__gnu_cxx13new_allocatorIxE10deallocateEPxj:
LFB8252:
	.loc 6 109 0
	.cfi_startproc
	pushl	%ebp
	.cfi_def_cfa_offset 8
	.cfi_offset 5, -8
	movl	%esp, %ebp
	.cfi_def_cfa_register 5
	subl	$40, %esp
	movl	%ecx, -12(%ebp)
	.loc 6 110 0
	movl	8(%ebp), %eax
	movl	%eax, (%esp)
	call	__ZdlPv
	nop
	leave
	.cfi_restore 5
	.cfi_def_cfa 4, 4
	ret	$8
	.cfi_endproc
LFE8252:
	.section	.text$_ZNSt27__uninitialized_default_n_1ILb1EE18__uninit_default_nIPxjEET_S3_T0_,"x"
	.linkonce discard
	.globl	__ZNSt27__uninitialized_default_n_1ILb1EE18__uninit_default_nIPxjEET_S3_T0_
	.def	__ZNSt27__uninitialized_default_n_1ILb1EE18__uninit_default_nIPxjEET_S3_T0_;	.scl	2;	.type	32;	.endef
__ZNSt27__uninitialized_default_n_1ILb1EE18__uninit_default_nIPxjEET_S3_T0_:
LFB8253:
	.loc 9 535 0
	.cfi_startproc
	pushl	%ebp
	.cfi_def_cfa_offset 8
	.cfi_offset 5, -8
	movl	%esp, %ebp
	.cfi_def_cfa_register 5
	subl	$40, %esp
	.loc 9 540 0
	movl	$0, -16(%ebp)
	movl	$0, -12(%ebp)
	leal	-16(%ebp), %eax
	movl	%eax, 8(%esp)
	movl	12(%ebp), %eax
	movl	%eax, 4(%esp)
	movl	8(%ebp), %eax
	movl	%eax, (%esp)
	call	__ZSt6fill_nIPxjxET_S1_T0_RKT1_
	.loc 9 541 0
	leave
	.cfi_restore 5
	.cfi_def_cfa 4, 4
	ret
	.cfi_endproc
LFE8253:
	.section	.text$_ZN9__gnu_cxx13new_allocatorIxE8allocateEjPKv,"x"
	.linkonce discard
	.align 2
	.globl	__ZN9__gnu_cxx13new_allocatorIxE8allocateEjPKv
	.def	__ZN9__gnu_cxx13new_allocatorIxE8allocateEjPKv;	.scl	2;	.type	32;	.endef
__ZN9__gnu_cxx13new_allocatorIxE8allocateEjPKv:
LFB8278:
	.loc 6 99 0
	.cfi_startproc
	pushl	%ebp
	.cfi_def_cfa_offset 8
	.cfi_offset 5, -8
	movl	%esp, %ebp
	.cfi_def_cfa_register 5
	subl	$40, %esp
	movl	%ecx, -12(%ebp)
	.loc 6 101 0
	movl	-12(%ebp), %eax
	movl	%eax, %ecx
	call	__ZNK9__gnu_cxx13new_allocatorIxE8max_sizeEv
	cmpl	8(%ebp), %eax
	setb	%al
	testb	%al, %al
	je	L100
	.loc 6 102 0
	call	__ZSt17__throw_bad_allocv
L100:
	.loc 6 104 0
	movl	8(%ebp), %eax
	sall	$3, %eax
	movl	%eax, (%esp)
	call	__Znwj
	.loc 6 105 0
	leave
	.cfi_restore 5
	.cfi_def_cfa 4, 4
	ret	$8
	.cfi_endproc
LFE8278:
	.section	.text$_ZSt6fill_nIPxjxET_S1_T0_RKT1_,"x"
	.linkonce discard
	.globl	__ZSt6fill_nIPxjxET_S1_T0_RKT1_
	.def	__ZSt6fill_nIPxjxET_S1_T0_RKT1_;	.scl	2;	.type	32;	.endef
__ZSt6fill_nIPxjxET_S1_T0_RKT1_:
LFB8279:
	.file 11 "c:/mingw/lib/gcc/mingw32/6.3.0/include/c++/bits/stl_algobase.h"
	.loc 11 784 0
	.cfi_startproc
	pushl	%ebp
	.cfi_def_cfa_offset 8
	.cfi_offset 5, -8
	movl	%esp, %ebp
	.cfi_def_cfa_register 5
	subl	$24, %esp
	.loc 11 789 0
	movl	8(%ebp), %eax
	movl	%eax, (%esp)
	call	__ZSt12__niter_baseIPxET_S1_
	movl	%eax, %edx
	movl	16(%ebp), %eax
	movl	%eax, 8(%esp)
	movl	12(%ebp), %eax
	movl	%eax, 4(%esp)
	movl	%edx, (%esp)
	call	__ZSt10__fill_n_aIPxjxEN9__gnu_cxx11__enable_ifIXsrSt11__is_scalarIT1_E7__valueET_E6__typeES6_T0_RKS4_
	.loc 11 790 0
	leave
	.cfi_restore 5
	.cfi_def_cfa 4, 4
	ret
	.cfi_endproc
LFE8279:
	.section	.text$_ZNK9__gnu_cxx13new_allocatorIxE8max_sizeEv,"x"
	.linkonce discard
	.align 2
	.globl	__ZNK9__gnu_cxx13new_allocatorIxE8max_sizeEv
	.def	__ZNK9__gnu_cxx13new_allocatorIxE8max_sizeEv;	.scl	2;	.type	32;	.endef
__ZNK9__gnu_cxx13new_allocatorIxE8max_sizeEv:
LFB8288:
	.loc 6 113 0
	.cfi_startproc
	pushl	%ebp
	.cfi_def_cfa_offset 8
	.cfi_offset 5, -8
	movl	%esp, %ebp
	.cfi_def_cfa_register 5
	subl	$4, %esp
	movl	%ecx, -4(%ebp)
	.loc 6 114 0
	movl	$536870911, %eax
	leave
	.cfi_restore 5
	.cfi_def_cfa 4, 4
	ret
	.cfi_endproc
LFE8288:
	.section	.text$_ZSt12__niter_baseIPxET_S1_,"x"
	.linkonce discard
	.globl	__ZSt12__niter_baseIPxET_S1_
	.def	__ZSt12__niter_baseIPxET_S1_;	.scl	2;	.type	32;	.endef
__ZSt12__niter_baseIPxET_S1_:
LFB8289:
	.loc 11 277 0
	.cfi_startproc
	pushl	%ebp
	.cfi_def_cfa_offset 8
	.cfi_offset 5, -8
	movl	%esp, %ebp
	.cfi_def_cfa_register 5
	.loc 11 278 0
	movl	8(%ebp), %eax
	popl	%ebp
	.cfi_restore 5
	.cfi_def_cfa 4, 4
	ret
	.cfi_endproc
LFE8289:
	.section	.text$_ZSt10__fill_n_aIPxjxEN9__gnu_cxx11__enable_ifIXsrSt11__is_scalarIT1_E7__valueET_E6__typeES6_T0_RKS4_,"x"
	.linkonce discard
	.globl	__ZSt10__fill_n_aIPxjxEN9__gnu_cxx11__enable_ifIXsrSt11__is_scalarIT1_E7__valueET_E6__typeES6_T0_RKS4_
	.def	__ZSt10__fill_n_aIPxjxEN9__gnu_cxx11__enable_ifIXsrSt11__is_scalarIT1_E7__valueET_E6__typeES6_T0_RKS4_;	.scl	2;	.type	32;	.endef
__ZSt10__fill_n_aIPxjxEN9__gnu_cxx11__enable_ifIXsrSt11__is_scalarIT1_E7__valueET_E6__typeES6_T0_RKS4_:
LFB8290:
	.loc 11 749 0
	.cfi_startproc
	pushl	%ebp
	.cfi_def_cfa_offset 8
	.cfi_offset 5, -8
	movl	%esp, %ebp
	.cfi_def_cfa_register 5
	subl	$16, %esp
	.loc 11 751 0
	movl	16(%ebp), %eax
	movl	4(%eax), %edx
	movl	(%eax), %eax
	movl	%eax, -16(%ebp)
	movl	%edx, -12(%ebp)
LBB16:
	.loc 11 752 0
	movl	12(%ebp), %eax
	movl	%eax, -4(%ebp)
L110:
	.loc 11 753 0
	cmpl	$0, -4(%ebp)
	je	L109
	.loc 11 754 0
	movl	8(%ebp), %ecx
	movl	-16(%ebp), %eax
	movl	-12(%ebp), %edx
	movl	%eax, (%ecx)
	movl	%edx, 4(%ecx)
	.loc 11 752 0
	subl	$1, -4(%ebp)
	addl	$8, 8(%ebp)
	jmp	L110
L109:
LBE16:
	.loc 11 755 0
	movl	8(%ebp), %eax
	.loc 11 756 0
	leave
	.cfi_restore 5
	.cfi_def_cfa 4, 4
	ret
	.cfi_endproc
LFE8290:
	.text
	.def	___tcf_0;	.scl	3;	.type	32;	.endef
___tcf_0:
LFB8302:
	.file 12 "c:/mingw/lib/gcc/mingw32/6.3.0/include/c++/iostream"
	.loc 12 74 0
	.cfi_startproc
	pushl	%ebp
	.cfi_def_cfa_offset 8
	.cfi_offset 5, -8
	movl	%esp, %ebp
	.cfi_def_cfa_register 5
	subl	$8, %esp
	.loc 12 74 0
	movl	$__ZStL8__ioinit, %ecx
	call	__ZNSt8ios_base4InitD1Ev
	leave
	.cfi_restore 5
	.cfi_def_cfa 4, 4
	ret
	.cfi_endproc
LFE8302:
	.def	__Z41__static_initialization_and_destruction_0ii;	.scl	3;	.type	32;	.endef
__Z41__static_initialization_and_destruction_0ii:
LFB8301:
	.loc 2 34 0
	.cfi_startproc
	pushl	%ebp
	.cfi_def_cfa_offset 8
	.cfi_offset 5, -8
	movl	%esp, %ebp
	.cfi_def_cfa_register 5
	subl	$24, %esp
	.loc 2 34 0
	cmpl	$1, 8(%ebp)
	jne	L115
	.loc 2 34 0 is_stmt 0 discriminator 1
	cmpl	$65535, 12(%ebp)
	jne	L115
	.loc 12 74 0 is_stmt 1
	movl	$__ZStL8__ioinit, %ecx
	call	__ZNSt8ios_base4InitC1Ev
	movl	$___tcf_0, (%esp)
	call	_atexit
L115:
	.loc 2 34 0
	nop
	leave
	.cfi_restore 5
	.cfi_def_cfa 4, 4
	ret
	.cfi_endproc
LFE8301:
	.def	__GLOBAL__sub_I__Z5solvev;	.scl	3;	.type	32;	.endef
__GLOBAL__sub_I__Z5solvev:
LFB8303:
	.loc 2 34 0
	.cfi_startproc
	pushl	%ebp
	.cfi_def_cfa_offset 8
	.cfi_offset 5, -8
	movl	%esp, %ebp
	.cfi_def_cfa_register 5
	subl	$24, %esp
	.loc 2 34 0
	movl	$65535, 4(%esp)
	movl	$1, (%esp)
	call	__Z41__static_initialization_and_destruction_0ii
	leave
	.cfi_restore 5
	.cfi_def_cfa 4, 4
	ret
	.cfi_endproc
LFE8303:
	.section	.ctors,"w"
	.align 4
	.long	__GLOBAL__sub_I__Z5solvev
	.text
Letext0:
	.file 13 "c:/mingw/lib/gcc/mingw32/6.3.0/include/c++/clocale"
	.file 14 "c:/mingw/lib/gcc/mingw32/6.3.0/include/c++/bits/cpp_type_traits.h"
	.file 15 "c:/mingw/lib/gcc/mingw32/6.3.0/include/c++/cmath"
	.file 16 "c:/mingw/lib/gcc/mingw32/6.3.0/include/c++/csetjmp"
	.file 17 "c:/mingw/lib/gcc/mingw32/6.3.0/include/c++/csignal"
	.file 18 "c:/mingw/lib/gcc/mingw32/6.3.0/include/c++/cstdarg"
	.file 19 "c:/mingw/lib/gcc/mingw32/6.3.0/include/c++/cstddef"
	.file 20 "c:/mingw/lib/gcc/mingw32/6.3.0/include/c++/cstdio"
	.file 21 "c:/mingw/lib/gcc/mingw32/6.3.0/include/c++/cstdlib"
	.file 22 "c:/mingw/lib/gcc/mingw32/6.3.0/include/c++/cstring"
	.file 23 "c:/mingw/lib/gcc/mingw32/6.3.0/include/c++/ctime"
	.file 24 "c:/mingw/lib/gcc/mingw32/6.3.0/include/c++/cwchar"
	.file 25 "<built-in>"
	.file 26 "c:/mingw/lib/gcc/mingw32/6.3.0/include/c++/bits/exception_ptr.h"
	.file 27 "c:/mingw/lib/gcc/mingw32/6.3.0/include/c++/type_traits"
	.file 28 "c:/mingw/lib/gcc/mingw32/6.3.0/include/c++/mingw32/bits/c++config.h"
	.file 29 "c:/mingw/lib/gcc/mingw32/6.3.0/include/c++/debug/debug.h"
	.file 30 "c:/mingw/lib/gcc/mingw32/6.3.0/include/c++/bits/char_traits.h"
	.file 31 "c:/mingw/lib/gcc/mingw32/6.3.0/include/c++/bits/stl_pair.h"
	.file 32 "c:/mingw/lib/gcc/mingw32/6.3.0/include/c++/cstdint"
	.file 33 "c:/mingw/lib/gcc/mingw32/6.3.0/include/c++/new"
	.file 34 "c:/mingw/lib/gcc/mingw32/6.3.0/include/c++/bits/basic_string.h"
	.file 35 "c:/mingw/lib/gcc/mingw32/6.3.0/include/c++/complex"
	.file 36 "c:/mingw/lib/gcc/mingw32/6.3.0/include/c++/chrono"
	.file 37 "c:/mingw/lib/gcc/mingw32/6.3.0/include/c++/system_error"
	.file 38 "c:/mingw/lib/gcc/mingw32/6.3.0/include/c++/bits/ios_base.h"
	.file 39 "c:/mingw/lib/gcc/mingw32/6.3.0/include/c++/cwctype"
	.file 40 "c:/mingw/lib/gcc/mingw32/6.3.0/include/c++/fenv.h"
	.file 41 "c:/mingw/lib/gcc/mingw32/6.3.0/include/c++/cfenv"
	.file 42 "c:/mingw/lib/gcc/mingw32/6.3.0/include/c++/cinttypes"
	.file 43 "c:/mingw/lib/gcc/mingw32/6.3.0/include/c++/bits/algorithmfwd.h"
	.file 44 "c:/mingw/lib/gcc/mingw32/6.3.0/include/c++/bits/uses_allocator.h"
	.file 45 "c:/mingw/lib/gcc/mingw32/6.3.0/include/c++/tuple"
	.file 46 "c:/mingw/lib/gcc/mingw32/6.3.0/include/c++/functional"
	.file 47 "c:/mingw/lib/gcc/mingw32/6.3.0/include/c++/iosfwd"
	.file 48 "c:/mingw/lib/gcc/mingw32/6.3.0/include/c++/bits/uniform_int_dist.h"
	.file 49 "c:/mingw/lib/gcc/mingw32/6.3.0/include/c++/bits/regex_automaton.h"
	.file 50 "c:/mingw/lib/gcc/mingw32/6.3.0/include/c++/bits/shared_ptr_base.h"
	.file 51 "c:/mingw/lib/gcc/mingw32/6.3.0/include/c++/ratio"
	.file 52 "c:/mingw/lib/gcc/mingw32/6.3.0/include/c++/bits/std_mutex.h"
	.file 53 "c:/mingw/lib/gcc/mingw32/6.3.0/include/c++/bits/random.h"
	.file 54 "c:/mingw/lib/gcc/mingw32/6.3.0/include/c++/bits/regex_constants.h"
	.file 55 "c:/mingw/lib/gcc/mingw32/6.3.0/include/c++/bits/regex_error.h"
	.file 56 "c:/mingw/lib/gcc/mingw32/6.3.0/include/c++/bits/vector.tcc"
	.file 57 "c:/mingw/lib/gcc/mingw32/6.3.0/include/c++/initializer_list"
	.file 58 "c:/mingw/lib/gcc/mingw32/6.3.0/include/c++/bits/stl_iterator_base_types.h"
	.file 59 "c:/mingw/lib/gcc/mingw32/6.3.0/include/c++/ext/numeric_traits.h"
	.file 60 "c:/mingw/lib/gcc/mingw32/6.3.0/include/c++/ext/concurrence.h"
	.file 61 "c:/mingw/lib/gcc/mingw32/6.3.0/include/c++/ext/alloc_traits.h"
	.file 62 "c:/mingw/lib/gcc/mingw32/6.3.0/include/c++/ext/type_traits.h"
	.file 63 "c:/mingw/lib/gcc/mingw32/6.3.0/include/stddef.h"
	.file 64 "c:/mingw/include/wctype.h"
	.file 65 "c:/mingw/include/ctype.h"
	.file 66 "c:/mingw/include/locale.h"
	.file 67 "c:/mingw/include/math.h"
	.file 68 "c:/mingw/include/setjmp.h"
	.file 69 "c:/mingw/include/signal.h"
	.file 70 "c:/mingw/lib/gcc/mingw32/6.3.0/include/stdarg.h"
	.file 71 "c:/mingw/include/stdio.h"
	.file 72 "c:/mingw/include/stdlib.h"
	.file 73 "c:/mingw/include/string.h"
	.file 74 "c:/mingw/include/sys/types.h"
	.file 75 "c:/mingw/include/time.h"
	.file 76 "c:/mingw/include/stdint.h"
	.file 77 "c:/mingw/include/wchar.h"
	.file 78 "c:/mingw/lib/gcc/mingw32/6.3.0/include/c++/mingw32/bits/gthr-default.h"
	.file 79 "c:/mingw/lib/gcc/mingw32/6.3.0/include/c++/mingw32/bits/atomic_word.h"
	.file 80 "c:/mingw/include/fenv.h"
	.file 81 "c:/mingw/include/inttypes.h"